; Function Attrs: nofree null_pointer_is_valid sspstrong uwtable
define internal fastcc range(i32 -1, 1) i32 @fill_in_buffer(ptr noundef captures(none) %0) unnamed_addr #12 {
  %2 = getelementptr inbounds nuw i8, ptr %0, i64 132
  %3 = load i32, ptr %2, align 4
  %.not = icmp eq i32 %3, 0
  br i1 %.not, label %4, label %41

4:                                                ; preds = %1
  %5 = getelementptr inbounds nuw i8, ptr %0, i64 80
  %6 = load i8, ptr %5, align 8, !range !9, !noundef !10
  %7 = trunc nuw i8 %6 to i1
  br i1 %7, label %41, label %8

8:                                                ; preds = %4
  %9 = getelementptr inbounds nuw i8, ptr %0, i64 32
  %10 = getelementptr inbounds nuw i8, ptr %0, i64 24
  %11 = load i32, ptr %10, align 8
  %12 = getelementptr inbounds nuw i8, ptr %0, i64 40
  %13 = load ptr, ptr %12, align 8
  %14 = getelementptr inbounds nuw i8, ptr %0, i64 48
  %15 = load i32, ptr %14, align 8
  %16 = zext i32 %15 to i64
  %17 = getelementptr i8, ptr %13, i64 %16
  %18 = load ptr, ptr %9, align 8
  %19 = ptrtoint ptr %17 to i64
  %20 = ptrtoint ptr %18 to i64
  %.neg.i = sub i64 %20, %19
  %.neg25.i = trunc i64 %.neg.i to i32
  %21 = add i32 %11, %.neg25.i
  %22 = icmp eq i32 %21, 0
  br i1 %22, label %23, label %24

23:                                               ; preds = %8
  store ptr %18, ptr %12, align 8
  store i32 0, ptr %14, align 8
  br label %24

24:                                               ; preds = %23, %8
  %.022.i = phi i32 [ %11, %23 ], [ %21, %8 ]
  %.021.i = phi ptr [ %18, %23 ], [ %17, %8 ]
  %25 = load i32, ptr %0, align 8
  %26 = zext i32 %.022.i to i64
  %27 = tail call i64 @read(i32 noundef %25, ptr noundef %.021.i, i64 noundef %26)
  %28 = icmp slt i64 %27, 0
  br i1 %28, label %buf_read.exit.thread, label %32

buf_read.exit.thread:                             ; preds = %24
  %29 = tail call ptr @__errno_location() #23
  %30 = load i32, ptr %29, align 4
  store i32 %30, ptr %2, align 4
  %31 = getelementptr inbounds nuw i8, ptr %0, i64 136
  store ptr null, ptr %31, align 8
  br label %41

32:                                               ; preds = %24
  %33 = icmp eq i64 %27, 0
  br i1 %33, label %34, label %buf_read.exit

34:                                               ; preds = %32
  store i8 1, ptr %5, align 8
  br label %buf_read.exit

buf_read.exit:                                    ; preds = %32, %34
  %35 = getelementptr inbounds nuw i8, ptr %0, i64 8
  %36 = load i64, ptr %35, align 8
  %37 = add i64 %36, %27
  store i64 %37, ptr %35, align 8
  %38 = trunc i64 %27 to i32
  %39 = load i32, ptr %14, align 8
  %40 = add i32 %39, %38
  store i32 %40, ptr %14, align 8
  br label %41

41:                                               ; preds = %4, %buf_read.exit, %buf_read.exit.thread, %1
  %.0 = phi i32 [ -1, %1 ], [ -1, %buf_read.exit.thread ], [ 0, %buf_read.exit ], [ 0, %4 ]
  ret i32 %.0
}